(dp0
S'max_money'
p1
I999
sS'bg'
p2
S'landscape3.png'
p3
sS'goal'
p4
(lp5
F1170.0
aF240.0
asS'plateaus'
p6
(lp7
(iPlateau
Plateau
p8
(dp9
S'end'
p10
(I200
I300
tp11
sS'center'
p12
(lp13
I0
aI300
asS'len'
p14
F400.0
sS'start'
p15
(I-200
I300
tp16
sS'collision_width'
p17
I100
sS'dir'
p18
(lp19
F1.0
aF0.0
asbasS'connections'
p20
(lp21
sg15
(lp22
I-400
aF183.0
asS'points'
p23
(lp24
sS'grid'
p25
(lp26
(lp27
F100.0
aF100.0
aa(lp28
F100.0
aF144.44444444444446
aa(lp29
F100.0
aF188.88888888888889
aa(lp30
F100.0
aF233.33333333333334
aa(lp31
F100.0
aF277.77777777777777
aa(lp32
F100.0
aF322.22222222222223
aa(lp33
F100.0
aF366.6666666666667
aa(lp34
F100.0
aF411.1111111111111
aa(lp35
F100.0
aF455.55555555555554
aa(lp36
F100.0
aF500.0
aa(lp37
F222.22222222222223
aF100.0
aa(lp38
F222.22222222222223
aF144.44444444444446
aa(lp39
F222.22222222222223
aF188.88888888888889
aa(lp40
F222.22222222222223
aF233.33333333333334
aa(lp41
F222.22222222222223
aF277.77777777777777
aa(lp42
F222.22222222222223
aF322.22222222222223
aa(lp43
F222.22222222222223
aF366.6666666666667
aa(lp44
F222.22222222222223
aF411.1111111111111
aa(lp45
F222.22222222222223
aF455.55555555555554
aa(lp46
F222.22222222222223
aF500.0
aa(lp47
F344.44444444444446
aF100.0
aa(lp48
F344.44444444444446
aF144.44444444444446
aa(lp49
F344.44444444444446
aF188.88888888888889
aa(lp50
F344.44444444444446
aF233.33333333333334
aa(lp51
F344.44444444444446
aF277.77777777777777
aa(lp52
F344.44444444444446
aF322.22222222222223
aa(lp53
F344.44444444444446
aF366.6666666666667
aa(lp54
F344.44444444444446
aF411.1111111111111
aa(lp55
F344.44444444444446
aF455.55555555555554
aa(lp56
F344.44444444444446
aF500.0
aa(lp57
F466.6666666666667
aF100.0
aa(lp58
F466.6666666666667
aF144.44444444444446
aa(lp59
F466.6666666666667
aF188.88888888888889
aa(lp60
F466.6666666666667
aF233.33333333333334
aa(lp61
F466.6666666666667
aF277.77777777777777
aa(lp62
F466.6666666666667
aF322.22222222222223
aa(lp63
F466.6666666666667
aF366.6666666666667
aa(lp64
F466.6666666666667
aF411.1111111111111
aa(lp65
F466.6666666666667
aF455.55555555555554
aa(lp66
F466.6666666666667
aF500.0
aa(lp67
F588.8888888888889
aF100.0
aa(lp68
F588.8888888888889
aF144.44444444444446
aa(lp69
F588.8888888888889
aF188.88888888888889
aa(lp70
F588.8888888888889
aF233.33333333333334
aa(lp71
F588.8888888888889
aF277.77777777777777
aa(lp72
F588.8888888888889
aF322.22222222222223
aa(lp73
F588.8888888888889
aF366.6666666666667
aa(lp74
F588.8888888888889
aF411.1111111111111
aa(lp75
F588.8888888888889
aF455.55555555555554
aa(lp76
F588.8888888888889
aF500.0
aa(lp77
F711.1111111111111
aF100.0
aa(lp78
F711.1111111111111
aF144.44444444444446
aa(lp79
F711.1111111111111
aF188.88888888888889
aa(lp80
F711.1111111111111
aF233.33333333333334
aa(lp81
F711.1111111111111
aF277.77777777777777
aa(lp82
F711.1111111111111
aF322.22222222222223
aa(lp83
F711.1111111111111
aF366.6666666666667
aa(lp84
F711.1111111111111
aF411.1111111111111
aa(lp85
F711.1111111111111
aF455.55555555555554
aa(lp86
F711.1111111111111
aF500.0
aa(lp87
F833.3333333333334
aF100.0
aa(lp88
F833.3333333333334
aF144.44444444444446
aa(lp89
F833.3333333333334
aF188.88888888888889
aa(lp90
F833.3333333333334
aF233.33333333333334
aa(lp91
F833.3333333333334
aF277.77777777777777
aa(lp92
F833.3333333333334
aF322.22222222222223
aa(lp93
F833.3333333333334
aF366.6666666666667
aa(lp94
F833.3333333333334
aF411.1111111111111
aa(lp95
F833.3333333333334
aF455.55555555555554
aa(lp96
F833.3333333333334
aF500.0
aa(lp97
F955.5555555555555
aF100.0
aa(lp98
F955.5555555555555
aF144.44444444444446
aa(lp99
F955.5555555555555
aF188.88888888888889
aa(lp100
F955.5555555555555
aF233.33333333333334
aa(lp101
F955.5555555555555
aF277.77777777777777
aa(lp102
F955.5555555555555
aF322.22222222222223
aa(lp103
F955.5555555555555
aF366.6666666666667
aa(lp104
F955.5555555555555
aF411.1111111111111
aa(lp105
F955.5555555555555
aF455.55555555555554
aa(lp106
F955.5555555555555
aF500.0
aa(lp107
F1077.7777777777778
aF100.0
aa(lp108
F1077.7777777777778
aF144.44444444444446
aa(lp109
F1077.7777777777778
aF188.88888888888889
aa(lp110
F1077.7777777777778
aF233.33333333333334
aa(lp111
F1077.7777777777778
aF277.77777777777777
aa(lp112
F1077.7777777777778
aF322.22222222222223
aa(lp113
F1077.7777777777778
aF366.6666666666667
aa(lp114
F1077.7777777777778
aF411.1111111111111
aa(lp115
F1077.7777777777778
aF455.55555555555554
aa(lp116
F1077.7777777777778
aF500.0
aa(lp117
F1200.0
aF100.0
aa(lp118
F1200.0
aF144.44444444444446
aa(lp119
F1200.0
aF188.88888888888889
aa(lp120
F1200.0
aF233.33333333333334
aa(lp121
F1200.0
aF277.77777777777777
aa(lp122
F1200.0
aF322.22222222222223
aa(lp123
F1200.0
aF366.6666666666667
aa(lp124
F1200.0
aF411.1111111111111
aa(lp125
F1200.0
aF455.55555555555554
aa(lp126
F1200.0
aF500.0
aas.